; ModuleID = '38/194.c'
source_filename = "38/194.c"
target datalayout = "e-m:e-p270:32:32-p271:32:32-p272:64:64-i64:64-f80:128-n8:16:32:64-S128"
target triple = "x86_64-pc-linux-gnu"

@.str = private unnamed_addr constant [3 x i8] c"%d\00", align 1
@.str.1 = private unnamed_addr constant [4 x i8] c"%lf\00", align 1
@.str.2 = private unnamed_addr constant [6 x i8] c"%.5f\0A\00", align 1

; Function Attrs: noinline nounwind uwtable
define dso_local double @average(i32 %0, double* %1) #0 {
  %3 = alloca i32, align 4
  %4 = alloca double*, align 8
  %5 = alloca double, align 8
  %6 = alloca double, align 8
  store i32 %0, i32* %3, align 4
  store double* %1, double** %4, align 8
  store double 0.000000e+00, double* %6, align 8
  store double 0.000000e+00, double* %5, align 8
  br label %7

7:                                                ; preds = %19, %2
  %8 = load double, double* %5, align 8
  %9 = load i32, i32* %3, align 4
  %10 = sitofp i32 %9 to double
  %11 = fcmp olt double %8, %10
  br i1 %11, label %12, label %22

12:                                               ; preds = %7
  %13 = load double, double* %6, align 8
  %14 = load double*, double** %4, align 8
  %15 = load double, double* %14, align 8
  %16 = fadd double %13, %15
  store double %16, double* %6, align 8
  %17 = load double*, double** %4, align 8
  %18 = getelementptr inbounds double, double* %17, i32 1
  store double* %18, double** %4, align 8
  br label %19

19:                                               ; preds = %12
  %20 = load double, double* %5, align 8
  %21 = fadd double %20, 1.000000e+00
  store double %21, double* %5, align 8
  br label %7

22:                                               ; preds = %7
  %23 = load double, double* %6, align 8
  %24 = load i32, i32* %3, align 4
  %25 = sitofp i32 %24 to double
  %26 = fdiv double %23, %25
  store double %26, double* %6, align 8
  %27 = load double, double* %6, align 8
  ret double %27
}

; Function Attrs: noinline nounwind uwtable
define dso_local double @S(i32 %0, double* %1) #0 {
  %3 = alloca i32, align 4
  %4 = alloca double*, align 8
  %5 = alloca double, align 8
  %6 = alloca double, align 8
  %7 = alloca double, align 8
  store i32 %0, i32* %3, align 4
  store double* %1, double** %4, align 8
  store double 0.000000e+00, double* %6, align 8
  %8 = load i32, i32* %3, align 4
  %9 = load double*, double** %4, align 8
  %10 = call double @average(i32 %8, double* %9)
  store double %10, double* %7, align 8
  store double 0.000000e+00, double* %5, align 8
  br label %11

11:                                               ; preds = %30, %2
  %12 = load double, double* %5, align 8
  %13 = load i32, i32* %3, align 4
  %14 = sitofp i32 %13 to double
  %15 = fcmp olt double %12, %14
  br i1 %15, label %16, label %33

16:                                               ; preds = %11
  %17 = load double, double* %6, align 8
  %18 = load double*, double** %4, align 8
  %19 = load double, double* %18, align 8
  %20 = load double, double* %7, align 8
  %21 = fsub double %19, %20
  %22 = load double*, double** %4, align 8
  %23 = load double, double* %22, align 8
  %24 = load double, double* %7, align 8
  %25 = fsub double %23, %24
  %26 = fmul double %21, %25
  %27 = fadd double %17, %26
  store double %27, double* %6, align 8
  %28 = load double*, double** %4, align 8
  %29 = getelementptr inbounds double, double* %28, i32 1
  store double* %29, double** %4, align 8
  br label %30

30:                                               ; preds = %16
  %31 = load double, double* %5, align 8
  %32 = fadd double %31, 1.000000e+00
  store double %32, double* %5, align 8
  br label %11

33:                                               ; preds = %11
  %34 = load double, double* %6, align 8
  %35 = load i32, i32* %3, align 4
  %36 = sitofp i32 %35 to double
  %37 = fdiv double %34, %36
  store double %37, double* %6, align 8
  %38 = load double, double* %6, align 8
  %39 = call double @sqrt(double %38) #3
  store double %39, double* %6, align 8
  %40 = load double, double* %6, align 8
  ret double %40
}

; Function Attrs: nounwind
declare dso_local double @sqrt(double) #1

; Function Attrs: noinline nounwind uwtable
define dso_local i32 @main() #0 {
  %1 = alloca i32, align 4
  %2 = alloca i32, align 4
  %3 = alloca i32, align 4
  %4 = alloca i32, align 4
  %5 = alloca i32, align 4
  %6 = alloca [100 x double], align 16
  %7 = alloca double*, align 8
  store i32 0, i32* %1, align 4
  %8 = getelementptr inbounds [100 x double], [100 x double]* %6, i64 0, i64 0
  store double* %8, double** %7, align 8
  %9 = call i32 (i8*, ...) @__isoc99_scanf(i8* getelementptr inbounds ([3 x i8], [3 x i8]* @.str, i64 0, i64 0), i32* %2)
  store i32 0, i32* %3, align 4
  br label %10

10:                                               ; preds = %33, %0
  %11 = load i32, i32* %3, align 4
  %12 = load i32, i32* %2, align 4
  %13 = icmp slt i32 %11, %12
  br i1 %13, label %14, label %36

14:                                               ; preds = %10
  %15 = call i32 (i8*, ...) @__isoc99_scanf(i8* getelementptr inbounds ([3 x i8], [3 x i8]* @.str, i64 0, i64 0), i32* %5)
  store i32 0, i32* %4, align 4
  br label %16

16:                                               ; preds = %25, %14
  %17 = load i32, i32* %4, align 4
  %18 = load i32, i32* %5, align 4
  %19 = icmp slt i32 %17, %18
  br i1 %19, label %20, label %28

20:                                               ; preds = %16
  %21 = load i32, i32* %4, align 4
  %22 = sext i32 %21 to i64
  %23 = getelementptr inbounds [100 x double], [100 x double]* %6, i64 0, i64 %22
  %24 = call i32 (i8*, ...) @__isoc99_scanf(i8* getelementptr inbounds ([4 x i8], [4 x i8]* @.str.1, i64 0, i64 0), double* %23)
  br label %25

25:                                               ; preds = %20
  %26 = load i32, i32* %4, align 4
  %27 = add nsw i32 %26, 1
  store i32 %27, i32* %4, align 4
  br label %16

28:                                               ; preds = %16
  %29 = load i32, i32* %5, align 4
  %30 = load double*, double** %7, align 8
  %31 = call double @S(i32 %29, double* %30)
  %32 = call i32 (i8*, ...) @printf(i8* getelementptr inbounds ([6 x i8], [6 x i8]* @.str.2, i64 0, i64 0), double %31)
  br label %33

33:                                               ; preds = %28
  %34 = load i32, i32* %3, align 4
  %35 = add nsw i32 %34, 1
  store i32 %35, i32* %3, align 4
  br label %10

36:                                               ; preds = %10
  ret i32 0
}

declare dso_local i32 @__isoc99_scanf(i8*, ...) #2

declare dso_local i32 @printf(i8*, ...) #2


!llvm.module.flags = !{!0}
!llvm.ident = !{!1}

!0 = !{i32 1, !"wchar_size", i32 4}
!1 = !{!"clang version 10.0.0-4ubuntu1 "}
